target datalayout = "e-m:e-p270:32:32-p271:32:32-p272:64:64-i64:64-i128:128-f80:128-n8:16:32:64-S128"
target triple = "x86_64-pc-linux-gnu"

%struct.cli_hashtable = type { ptr, i64, i64, i64 }
%struct.cli_map = type { %struct.cli_hashtable, %union.anon.0, i32, i32, i32, i32, i32 }
%union.anon.0 = type { ptr }
%struct.cli_map_value = type { ptr, i32 }

; Function Attrs: nounwind uwtable
define ptr @cli_map_getvalue(ptr noundef %0) #0 {
  %2 = alloca ptr, align 8
  %3 = alloca ptr, align 8
  store ptr %0, ptr %3, align 8
  %4 = load ptr, ptr %3, align 8
  %5 = getelementptr inbounds %struct.cli_map, ptr %4, i32 0, i32 6
  %6 = load i32, ptr %5, align 8
  %7 = icmp slt i32 %6, 0
  br i1 %7, label %16, label %8

8:                                                ; preds = %1
  %9 = load ptr, ptr %3, align 8
  %10 = getelementptr inbounds %struct.cli_map, ptr %9, i32 0, i32 6
  %11 = load i32, ptr %10, align 8
  %12 = load ptr, ptr %3, align 8
  %13 = getelementptr inbounds %struct.cli_map, ptr %12, i32 0, i32 2
  %14 = load i32, ptr %13, align 8
  %15 = icmp uge i32 %11, %14
  br i1 %15, label %16, label %17

16:                                               ; preds = %8, %1
  store ptr null, ptr %2, align 8
  br label %46

17:                                               ; preds = %8
  %18 = load ptr, ptr %3, align 8
  %19 = getelementptr inbounds %struct.cli_map, ptr %18, i32 0, i32 4
  %20 = load i32, ptr %19, align 8
  %21 = icmp ne i32 %20, 0
  br i1 %21, label %22, label %35

22:                                               ; preds = %17
  %23 = load ptr, ptr %3, align 8
  %24 = getelementptr inbounds %struct.cli_map, ptr %23, i32 0, i32 1
  %25 = load ptr, ptr %24, align 8
  %26 = load ptr, ptr %3, align 8
  %27 = getelementptr inbounds %struct.cli_map, ptr %26, i32 0, i32 6
  %28 = load i32, ptr %27, align 8
  %29 = load ptr, ptr %3, align 8
  %30 = getelementptr inbounds %struct.cli_map, ptr %29, i32 0, i32 4
  %31 = load i32, ptr %30, align 8
  %32 = mul nsw i32 %28, %31
  %33 = sext i32 %32 to i64
  %34 = getelementptr inbounds i8, ptr %25, i64 %33
  store ptr %34, ptr %2, align 8
  br label %46

35:                                               ; preds = %17
  %36 = load ptr, ptr %3, align 8
  %37 = getelementptr inbounds %struct.cli_map, ptr %36, i32 0, i32 1
  %38 = load ptr, ptr %37, align 8
  %39 = load ptr, ptr %3, align 8
  %40 = getelementptr inbounds %struct.cli_map, ptr %39, i32 0, i32 6
  %41 = load i32, ptr %40, align 8
  %42 = sext i32 %41 to i64
  %43 = getelementptr inbounds %struct.cli_map_value, ptr %38, i64 %42
  %44 = getelementptr inbounds %struct.cli_map_value, ptr %43, i32 0, i32 0
  %45 = load ptr, ptr %44, align 8
  store ptr %45, ptr %2, align 8
  br label %46

46:                                               ; preds = %35, %22, %16
  %47 = load ptr, ptr %2, align 8
  ret ptr %47
}