; Function Attrs: mustprogress nofree norecurse nosync nounwind willreturn memory(read, inaccessiblemem: none) uwtable
define ptr @cli_map_getvalue(ptr nocapture noundef readonly %0) local_unnamed_addr #16 {
  %2 = getelementptr inbounds i8, ptr %0, i64 56
  %3 = load i32, ptr %2, align 8
  %4 = icmp slt i32 %3, 0
  br i1 %4, label %21, label %5

5:                                                ; preds = %1
  %6 = getelementptr inbounds i8, ptr %0, i64 40
  %7 = load i32, ptr %6, align 8
  %.not = icmp ult i32 %3, %7
  br i1 %.not, label %8, label %21

8:                                                ; preds = %5
  %9 = getelementptr inbounds i8, ptr %0, i64 48
  %10 = load i32, ptr %9, align 8
  %.not12 = icmp eq i32 %10, 0
  %11 = getelementptr inbounds i8, ptr %0, i64 32
  %12 = load ptr, ptr %11, align 8
  br i1 %.not12, label %17, label %13

13:                                               ; preds = %8
  %14 = mul nsw i32 %10, %3
  %15 = sext i32 %14 to i64
  %16 = getelementptr inbounds i8, ptr %12, i64 %15
  br label %21

17:                                               ; preds = %8
  %18 = zext nneg i32 %3 to i64
  %19 = getelementptr inbounds %struct.cli_map_value, ptr %12, i64 %18
  %20 = load ptr, ptr %19, align 8
  br label %21

21:                                               ; preds = %1, %5, %17, %13
  %.0 = phi ptr [ %16, %13 ], [ %20, %17 ], [ null, %5 ], [ null, %1 ]
  ret ptr %.0
}